; Function Attrs: mustprogress nounwind uwtable
define internal fastcc noundef i32 @_ZN12_GLOBAL__N_115AArch64FastISel29fastEmit_ISD_VECREDUCE_UMAX_rEN4llvm3MVTES2_j(ptr noundef nonnull align 8 dereferenceable(192) %0, i16 %1, i16 %2, i32 noundef %3) unnamed_addr #0 align 2 {
  switch i16 %1, label %_ZN12_GLOBAL__N_115AArch64FastISel38fastEmit_ISD_VECREDUCE_UMAX_MVT_v8i8_rEN4llvm3MVTEj.exit [
    i16 38, label %5
    i16 39, label %8
    i16 49, label %11
    i16 50, label %14
    i16 60, label %17
  ]

5:                                                ; preds = %4
  %.not.i = icmp eq i16 %2, 5
  br i1 %.not.i, label %6, label %_ZN12_GLOBAL__N_115AArch64FastISel38fastEmit_ISD_VECREDUCE_UMAX_MVT_v8i8_rEN4llvm3MVTEj.exit

6:                                                ; preds = %5
  %7 = tail call i32 @_ZN4llvm8FastISel14fastEmitInst_rEjPKNS_19TargetRegisterClassEj(ptr noundef nonnull align 8 dereferenceable(192) %0, i32 noundef 7280, ptr noundef nonnull @_ZN4llvm7AArch6412FPR8RegClassE, i32 noundef %3) #21
  br label %_ZN12_GLOBAL__N_115AArch64FastISel38fastEmit_ISD_VECREDUCE_UMAX_MVT_v8i8_rEN4llvm3MVTEj.exit

8:                                                ; preds = %4
  %.not.i16 = icmp eq i16 %2, 5
  br i1 %.not.i16, label %9, label %_ZN12_GLOBAL__N_115AArch64FastISel38fastEmit_ISD_VECREDUCE_UMAX_MVT_v8i8_rEN4llvm3MVTEj.exit

9:                                                ; preds = %8
  %10 = tail call i32 @_ZN4llvm8FastISel14fastEmitInst_rEjPKNS_19TargetRegisterClassEj(ptr noundef nonnull align 8 dereferenceable(192) %0, i32 noundef 7276, ptr noundef nonnull @_ZN4llvm7AArch6412FPR8RegClassE, i32 noundef %3) #21
  br label %_ZN12_GLOBAL__N_115AArch64FastISel38fastEmit_ISD_VECREDUCE_UMAX_MVT_v8i8_rEN4llvm3MVTEj.exit

11:                                               ; preds = %4
  %.not.i18 = icmp eq i16 %2, 6
  br i1 %.not.i18, label %12, label %_ZN12_GLOBAL__N_115AArch64FastISel38fastEmit_ISD_VECREDUCE_UMAX_MVT_v8i8_rEN4llvm3MVTEj.exit

12:                                               ; preds = %11
  %13 = tail call i32 @_ZN4llvm8FastISel14fastEmitInst_rEjPKNS_19TargetRegisterClassEj(ptr noundef nonnull align 8 dereferenceable(192) %0, i32 noundef 7277, ptr noundef nonnull @_ZN4llvm7AArch6413FPR16RegClassE, i32 noundef %3) #21
  br label %_ZN12_GLOBAL__N_115AArch64FastISel38fastEmit_ISD_VECREDUCE_UMAX_MVT_v8i8_rEN4llvm3MVTEj.exit

14:                                               ; preds = %4
  %.not.i20 = icmp eq i16 %2, 6
  br i1 %.not.i20, label %15, label %_ZN12_GLOBAL__N_115AArch64FastISel38fastEmit_ISD_VECREDUCE_UMAX_MVT_v8i8_rEN4llvm3MVTEj.exit

15:                                               ; preds = %14
  %16 = tail call i32 @_ZN4llvm8FastISel14fastEmitInst_rEjPKNS_19TargetRegisterClassEj(ptr noundef nonnull align 8 dereferenceable(192) %0, i32 noundef 7279, ptr noundef nonnull @_ZN4llvm7AArch6413FPR16RegClassE, i32 noundef %3) #21
  br label %_ZN12_GLOBAL__N_115AArch64FastISel38fastEmit_ISD_VECREDUCE_UMAX_MVT_v8i8_rEN4llvm3MVTEj.exit

17:                                               ; preds = %4
  %.not.i22 = icmp eq i16 %2, 7
  br i1 %.not.i22, label %18, label %_ZN12_GLOBAL__N_115AArch64FastISel38fastEmit_ISD_VECREDUCE_UMAX_MVT_v8i8_rEN4llvm3MVTEj.exit

18:                                               ; preds = %17
  %19 = tail call i32 @_ZN4llvm8FastISel14fastEmitInst_rEjPKNS_19TargetRegisterClassEj(ptr noundef nonnull align 8 dereferenceable(192) %0, i32 noundef 7278, ptr noundef nonnull @_ZN4llvm7AArch6413FPR32RegClassE, i32 noundef %3) #21
  br label %_ZN12_GLOBAL__N_115AArch64FastISel38fastEmit_ISD_VECREDUCE_UMAX_MVT_v8i8_rEN4llvm3MVTEj.exit

_ZN12_GLOBAL__N_115AArch64FastISel38fastEmit_ISD_VECREDUCE_UMAX_MVT_v8i8_rEN4llvm3MVTEj.exit: ; preds = %18, %17, %15, %14, %12, %11, %9, %8, %6, %5, %4
  %.0 = phi i32 [ 0, %4 ], [ %7, %6 ], [ 0, %5 ], [ %10, %9 ], [ 0, %8 ], [ %13, %12 ], [ 0, %11 ], [ %16, %15 ], [ 0, %14 ], [ %19, %18 ], [ 0, %17 ]
  ret i32 %.0
}